target datalayout = "e-m:e-p270:32:32-p271:32:32-p272:64:64-i64:64-i128:128-f80:128-n8:16:32:64-S128"
target triple = "x86_64-pc-linux-gnu"

%struct.DdManager = type { %struct.DdNode, ptr, ptr, ptr, ptr, ptr, ptr, ptr, i32, i32, double, double, double, i32, i32, i32, i32, i32, i32, ptr, ptr, %struct.DdSubtable, i32, i32, i32, i32, i32, i32, i32, double, i32, i32, i32, ptr, i64, double, i32, ptr, ptr, ptr, ptr, ptr, ptr, ptr, i32, ptr, ptr, ptr, ptr, ptr, ptr, i32, i32, i32, double, i32, i32, i32, i32, double, double, i32, i32, i32, i32, i32, i32, i32, i32, i32, ptr, ptr, i32, i32, i32, i32, i32, i32, ptr, ptr, ptr, ptr, ptr, ptr, ptr, ptr, i32, i64, i64, i64, i32, i64, i64, double, double, double, double, double, double, i32, ptr, ptr, i64 }
%struct.DdNode = type { i32, i32, ptr, %union.anon, i64 }
%union.anon = type { %struct.DdChildren }
%struct.DdChildren = type { ptr, ptr }
%struct.DdSubtable = type { ptr, i32, i32, i32, i32, i32, i32, i32, i32, i32, i32, i32 }
%struct.timespec = type { i64, i64 }

@.str.5 = private unnamed_addr constant [2 x i8] c".\00", align 1
@.str.6 = private unnamed_addr constant [22 x i8] c"The BDD before = %d.\0A\00", align 1
@.str.7 = private unnamed_addr constant [22 x i8] c"The BDD after  = %d.\0A\00", align 1
@.str.8 = private unnamed_addr constant [5 x i8] c"%s =\00", align 1
@.str.9 = private unnamed_addr constant [5 x i8] c"Time\00", align 1
@.str.10 = private unnamed_addr constant [11 x i8] c"%9.2f sec\0A\00", align 1

; Function Attrs: nounwind uwtable
define internal i64 @Abc_Clock() #0 {
  %1 = alloca i64, align 8
  %2 = alloca %struct.timespec, align 8
  %3 = alloca i64, align 8
  %4 = call i32 @clock_gettime(i32 noundef 1, ptr noundef %2) #8
  %5 = icmp slt i32 %4, 0
  br i1 %5, label %6, label %7

6:                                                ; preds = %0
  store i64 -1, ptr %1, align 8
  br label %18

7:                                                ; preds = %0
  %8 = getelementptr inbounds %struct.timespec, ptr %2, i32 0, i32 0
  %9 = load i64, ptr %8, align 8
  %10 = mul nsw i64 %9, 1000000
  store i64 %10, ptr %3, align 8
  %11 = getelementptr inbounds %struct.timespec, ptr %2, i32 0, i32 1
  %12 = load i64, ptr %11, align 8
  %13 = mul nsw i64 %12, 1000000
  %14 = sdiv i64 %13, 1000000000
  %15 = load i64, ptr %3, align 8
  %16 = add nsw i64 %15, %14
  store i64 %16, ptr %3, align 8
  %17 = load i64, ptr %3, align 8
  store i64 %17, ptr %1, align 8
  br label %18

18:                                               ; preds = %7, %6
  %19 = load i64, ptr %1, align 8
  ret i64 %19
}

; Function Attrs: nounwind uwtable
define void @Abc_NtkBddImplicationTest() #0 {
  %1 = alloca ptr, align 8
  %2 = alloca ptr, align 8
  %3 = alloca ptr, align 8
  %4 = alloca ptr, align 8
  %5 = alloca i32, align 4
  %6 = alloca i32, align 4
  %7 = alloca i32, align 4
  %8 = alloca i64, align 8
  store i32 200, ptr %5, align 4
  store i32 200, ptr %6, align 4
  %9 = call i64 @Abc_Clock()
  store i64 %9, ptr %8, align 8
  %10 = load i32, ptr %5, align 4
  %11 = call ptr @Cudd_Init(i32 noundef %10, i32 noundef 0, i32 noundef 256, i32 noundef 262144, i64 noundef 0)
  store ptr %11, ptr %1, align 8
  %12 = load ptr, ptr %1, align 8
  call void @Cudd_AutodynEnable(ptr noundef %12, i32 noundef 4)
  %13 = load ptr, ptr %1, align 8
  %14 = getelementptr inbounds %struct.DdManager, ptr %13, i32 0, i32 1
  %15 = load ptr, ptr %14, align 8
  %16 = ptrtoint ptr %15 to i64
  %17 = xor i64 %16, 1
  %18 = inttoptr i64 %17 to ptr
  store ptr %18, ptr %3, align 8
  %19 = load ptr, ptr %3, align 8
  call void @Cudd_Ref(ptr noundef %19)
  store i32 0, ptr %7, align 4
  br label %20

20:                                               ; preds = %56, %0
  %21 = load i32, ptr %7, align 4
  %22 = load i32, ptr %6, align 4
  %23 = icmp slt i32 %21, %22
  br i1 %23, label %24, label %59

24:                                               ; preds = %20
  %25 = call i32 (ptr, ...) @printf(ptr noundef @.str.5)
  %26 = load ptr, ptr %1, align 8
  %27 = load ptr, ptr %1, align 8
  %28 = getelementptr inbounds %struct.DdManager, ptr %27, i32 0, i32 41
  %29 = load ptr, ptr %28, align 8
  %30 = call i32 @rand() #8
  %31 = load i32, ptr %5, align 4
  %32 = srem i32 %30, %31
  %33 = sext i32 %32 to i64
  %34 = getelementptr inbounds ptr, ptr %29, i64 %33
  %35 = load ptr, ptr %34, align 8
  %36 = load ptr, ptr %1, align 8
  %37 = getelementptr inbounds %struct.DdManager, ptr %36, i32 0, i32 41
  %38 = load ptr, ptr %37, align 8
  %39 = call i32 @rand() #8
  %40 = load i32, ptr %5, align 4
  %41 = srem i32 %39, %40
  %42 = sext i32 %41 to i64
  %43 = getelementptr inbounds ptr, ptr %38, i64 %42
  %44 = load ptr, ptr %43, align 8
  %45 = call ptr @Cudd_bddAnd(ptr noundef %26, ptr noundef %35, ptr noundef %44)
  store ptr %45, ptr %2, align 8
  %46 = load ptr, ptr %2, align 8
  call void @Cudd_Ref(ptr noundef %46)
  %47 = load ptr, ptr %1, align 8
  %48 = load ptr, ptr %3, align 8
  store ptr %48, ptr %4, align 8
  %49 = load ptr, ptr %2, align 8
  %50 = call ptr @Cudd_bddOr(ptr noundef %47, ptr noundef %48, ptr noundef %49)
  store ptr %50, ptr %3, align 8
  %51 = load ptr, ptr %3, align 8
  call void @Cudd_Ref(ptr noundef %51)
  %52 = load ptr, ptr %1, align 8
  %53 = load ptr, ptr %4, align 8
  call void @Cudd_RecursiveDeref(ptr noundef %52, ptr noundef %53)
  %54 = load ptr, ptr %1, align 8
  %55 = load ptr, ptr %2, align 8
  call void @Cudd_RecursiveDeref(ptr noundef %54, ptr noundef %55)
  br label %56

56:                                               ; preds = %24
  %57 = load i32, ptr %7, align 4
  %58 = add nsw i32 %57, 1
  store i32 %58, ptr %7, align 4
  br label %20, !llvm.loop !21

59:                                               ; preds = %20
  %60 = load ptr, ptr %3, align 8
  %61 = call i32 @Cudd_DagSize(ptr noundef %60)
  %62 = call i32 (ptr, ...) @printf(ptr noundef @.str.6, i32 noundef %61)
  %63 = load ptr, ptr %1, align 8
  %64 = call i32 @Cudd_ReduceHeap(ptr noundef %63, i32 noundef 4, i32 noundef 1)
  %65 = load ptr, ptr %3, align 8
  %66 = call i32 @Cudd_DagSize(ptr noundef %65)
  %67 = call i32 (ptr, ...) @printf(ptr noundef @.str.7, i32 noundef %66)
  call void (i32, ptr, ...) @Abc_Print(i32 noundef 1, ptr noundef @.str.8, ptr noundef @.str.9)
  %68 = call i64 @Abc_Clock()
  %69 = load i64, ptr %8, align 8
  %70 = sub nsw i64 %68, %69
  %71 = sitofp i64 %70 to double
  %72 = fmul double 1.000000e+00, %71
  %73 = fdiv double %72, 1.000000e+06
  call void (i32, ptr, ...) @Abc_Print(i32 noundef 1, ptr noundef @.str.10, double noundef %73)
  %74 = load ptr, ptr %1, align 8
  %75 = load ptr, ptr %3, align 8
  call void @Cudd_RecursiveDeref(ptr noundef %74, ptr noundef %75)
  %76 = load ptr, ptr %1, align 8
  call void @Cudd_Quit(ptr noundef %76)
  ret void
}