; Function Attrs: nounwind uwtable
define void @Abc_NtkBddImplicationTest() local_unnamed_addr #0 {
  %1 = alloca %struct.timespec, align 8
  %2 = alloca %struct.timespec, align 8
  call void @llvm.lifetime.start.p0(i64 16, ptr nonnull %2)
  %3 = call i32 @clock_gettime(i32 noundef 1, ptr noundef nonnull %2) #14
  %4 = icmp slt i32 %3, 0
  br i1 %4, label %Abc_Clock.exit, label %5

5:                                                ; preds = %0
  %6 = load i64, ptr %2, align 8
  %.neg30 = mul i64 %6, -1000000
  %7 = getelementptr inbounds nuw i8, ptr %2, i64 8
  %8 = load i64, ptr %7, align 8
  %.neg = sdiv i64 %8, -1000
  %.neg31 = add i64 %.neg, %.neg30
  br label %Abc_Clock.exit

Abc_Clock.exit:                                   ; preds = %0, %5
  %.0.i.neg = phi i64 [ %.neg31, %5 ], [ 1, %0 ]
  call void @llvm.lifetime.end.p0(i64 16, ptr nonnull %2)
  %9 = call ptr @Cudd_Init(i32 noundef 200, i32 noundef 0, i32 noundef 256, i32 noundef 262144, i64 noundef 0) #14
  call void @Cudd_AutodynEnable(ptr noundef %9, i32 noundef 4) #14
  %10 = getelementptr inbounds nuw i8, ptr %9, i64 40
  %11 = load ptr, ptr %10, align 8
  %12 = ptrtoint ptr %11 to i64
  %13 = xor i64 %12, 1
  %14 = inttoptr i64 %13 to ptr
  call void @Cudd_Ref(ptr noundef %14) #14
  %15 = getelementptr inbounds nuw i8, ptr %9, i64 344
  br label %16

16:                                               ; preds = %Abc_Clock.exit, %16
  %.033 = phi ptr [ %14, %Abc_Clock.exit ], [ %30, %16 ]
  %.02732 = phi i32 [ 0, %Abc_Clock.exit ], [ %31, %16 ]
  %putchar = call i32 @putchar(i32 46)
  %17 = load ptr, ptr %15, align 8
  %18 = call i32 @rand() #14
  %19 = srem i32 %18, 200
  %20 = sext i32 %19 to i64
  %21 = getelementptr inbounds ptr, ptr %17, i64 %20
  %22 = load ptr, ptr %21, align 8
  %23 = load ptr, ptr %15, align 8
  %24 = call i32 @rand() #14
  %25 = srem i32 %24, 200
  %26 = sext i32 %25 to i64
  %27 = getelementptr inbounds ptr, ptr %23, i64 %26
  %28 = load ptr, ptr %27, align 8
  %29 = call ptr @Cudd_bddAnd(ptr noundef nonnull %9, ptr noundef %22, ptr noundef %28) #14
  call void @Cudd_Ref(ptr noundef %29) #14
  %30 = call ptr @Cudd_bddOr(ptr noundef nonnull %9, ptr noundef %.033, ptr noundef %29) #14
  call void @Cudd_Ref(ptr noundef %30) #14
  call void @Cudd_RecursiveDeref(ptr noundef nonnull %9, ptr noundef %.033) #14
  call void @Cudd_RecursiveDeref(ptr noundef nonnull %9, ptr noundef %29) #14
  %31 = add nuw nsw i32 %.02732, 1
  %exitcond.not = icmp eq i32 %31, 200
  br i1 %exitcond.not, label %32, label %16, !llvm.loop !22

32:                                               ; preds = %16
  %33 = call i32 @Cudd_DagSize(ptr noundef %30) #14
  %34 = call i32 (ptr, ...) @printf(ptr noundef nonnull dereferenceable(1) @.str.6, i32 noundef %33)
  %35 = call i32 @Cudd_ReduceHeap(ptr noundef nonnull %9, i32 noundef 4, i32 noundef 1) #14
  %36 = call i32 @Cudd_DagSize(ptr noundef %30) #14
  %37 = call i32 (ptr, ...) @printf(ptr noundef nonnull dereferenceable(1) @.str.7, i32 noundef %36)
  call void (i32, ptr, ...) @Abc_Print(i32 poison, ptr noundef nonnull @.str.8, ptr noundef nonnull @.str.9)
  call void @llvm.lifetime.start.p0(i64 16, ptr nonnull %1)
  %38 = call i32 @clock_gettime(i32 noundef 1, ptr noundef nonnull %1) #14
  %39 = icmp slt i32 %38, 0
  br i1 %39, label %Abc_Clock.exit29, label %40

40:                                               ; preds = %32
  %41 = load i64, ptr %1, align 8
  %42 = mul nsw i64 %41, 1000000
  %43 = getelementptr inbounds nuw i8, ptr %1, i64 8
  %44 = load i64, ptr %43, align 8
  %45 = sdiv i64 %44, 1000
  %46 = add nsw i64 %45, %42
  br label %Abc_Clock.exit29

Abc_Clock.exit29:                                 ; preds = %32, %40
  %.0.i28 = phi i64 [ %46, %40 ], [ -1, %32 ]
  call void @llvm.lifetime.end.p0(i64 16, ptr nonnull %1)
  %47 = add i64 %.0.i28, %.0.i.neg
  %48 = sitofp i64 %47 to double
  %49 = fdiv double %48, 1.000000e+06
  call void (i32, ptr, ...) @Abc_Print(i32 poison, ptr noundef nonnull @.str.10, double noundef %49)
  call void @Cudd_RecursiveDeref(ptr noundef nonnull %9, ptr noundef %30) #14
  call void @Cudd_Quit(ptr noundef nonnull %9) #14
  ret void
}